; Function Attrs: mustprogress uwtable
define void @_ZN2cv4UMat4onesENS_5Size_IiEEiNS_14UMatUsageFlagsE(ptr dead_on_unwind noalias writable sret(%"class.cv::UMat") align 8 %0, i64 %1, i32 noundef %2, i32 noundef %3) local_unnamed_addr #4 align 2 {
  %5 = alloca %"class.cv::Scalar_", align 8
  call void @llvm.lifetime.start.p0(i64 32, ptr nonnull %5) #25
  store double 1.000000e+00, ptr %5, align 8, !tbaa !134
  %6 = getelementptr inbounds nuw i8, ptr %5, i64 8
  call void @llvm.memset.p0.i64(ptr noundef nonnull align 8 dereferenceable(24) %6, i8 0, i64 24, i1 false)
  call void @_ZN2cv4UMatC1ENS_5Size_IiEEiRKNS_7Scalar_IdEENS_14UMatUsageFlagsE(ptr noundef nonnull align 8 dereferenceable(80) %0, i64 %1, i32 noundef %2, ptr noundef nonnull align 8 dereferenceable(32) %5, i32 noundef %3)
  call void @llvm.lifetime.end.p0(i64 32, ptr nonnull %5) #25
  ret void
}